target datalayout = "e-m:e-p270:32:32-p271:32:32-p272:64:64-i64:64-i128:128-f80:128-n8:16:32:64-S128"
target triple = "x86_64-pc-linux-gnu"

%class.Register = type { i32 }
%class.LIR_Assembler = type { ptr, ptr, ptr, ptr, ptr, ptr, i32, i32, %class.Label }
%class.Label = type <{ i32, [4 x i32], i32, ptr, i8, [7 x i8] }>
%class.RelocationHolder = type { [40 x i8] }
%class.AddressLiteral = type { %class.RelocationHolder, i8, ptr }
%class.RuntimeAddress = type { %class.AddressLiteral }
%class.CodeBlob = type <{ ptr, ptr, ptr, i32, i32, i32, i32, i32, i32, i16, i16, i8, i8, [2 x i8] }>

@g_assert_poison = external global ptr, align 8
@.str.8 = private unnamed_addr constant [44 x i8] c"src/hotspot/cpu/x86/c1_LIRAssembler_x86.cpp\00", align 1
@.str.9 = private unnamed_addr constant [27 x i8] c"exception handler overflow\00", align 1
@_ZL3rax = internal constant %class.Register zeroinitializer, align 4
@.str.10 = private unnamed_addr constant [69 x i8] c"guarantee(code_offset() - offset <= exception_handler_size()) failed\00", align 1
@.str.11 = private unnamed_addr constant [9 x i8] c"overflow\00", align 1
@.str.28 = private unnamed_addr constant [22 x i8] c"should not reach here\00", align 1

; Function Attrs: mustprogress nounwind uwtable
define linkonce_odr hidden noundef ptr @_ZNK16RelocationHolder5relocEv(ptr noundef nonnull align 8 dereferenceable(40) %0) #1 comdat align 2 {
  %2 = alloca ptr, align 8
  store ptr %0, ptr %2, align 8
  %3 = load ptr, ptr %2, align 8
  %4 = getelementptr inbounds %class.RelocationHolder, ptr %3, i32 0, i32 0
  %5 = getelementptr inbounds [40 x i8], ptr %4, i64 0, i64 0
  ret ptr %5
}

; Function Attrs: mustprogress nounwind uwtable
define linkonce_odr hidden noundef ptr @_ZNK8CodeBlob12header_beginEv(ptr noundef nonnull align 8 dereferenceable(54) %0) #1 comdat align 2 {
  %2 = alloca ptr, align 8
  store ptr %0, ptr %2, align 8
  %3 = load ptr, ptr %2, align 8
  ret ptr %3
}

; Function Attrs: mustprogress nounwind uwtable
define linkonce_odr hidden void @_ZN16RelocationHolderC2ERKS_(ptr noundef nonnull align 8 dereferenceable(40) %0, ptr noundef nonnull align 8 dereferenceable(40) %1) unnamed_addr #1 comdat align 2 {
  %3 = alloca ptr, align 8
  %4 = alloca ptr, align 8
  store ptr %0, ptr %3, align 8
  store ptr %1, ptr %4, align 8
  %5 = load ptr, ptr %3, align 8
  %6 = load ptr, ptr %4, align 8
  %7 = call noundef ptr @_ZNK16RelocationHolder5relocEv(ptr noundef nonnull align 8 dereferenceable(40) %6)
  %8 = load ptr, ptr %7, align 8
  %9 = getelementptr inbounds ptr, ptr %8, i64 2
  %10 = load ptr, ptr %9, align 8
  call void %10(ptr noundef nonnull align 8 dereferenceable(20) %7, ptr noundef nonnull align 8 dereferenceable(40) %5)
  ret void
}

; Function Attrs: mustprogress nounwind uwtable
define linkonce_odr hidden noundef ptr @_ZNK8CodeBlob10code_beginEv(ptr noundef nonnull align 8 dereferenceable(54) %0) #1 comdat align 2 {
  %2 = alloca ptr, align 8
  store ptr %0, ptr %2, align 8
  %3 = load ptr, ptr %2, align 8
  %4 = call noundef ptr @_ZNK8CodeBlob12header_beginEv(ptr noundef nonnull align 8 dereferenceable(54) %3)
  %5 = getelementptr inbounds %class.CodeBlob, ptr %3, i32 0, i32 6
  %6 = load i32, ptr %5, align 4
  %7 = sext i32 %6 to i64
  %8 = getelementptr inbounds i8, ptr %4, i64 %7
  ret ptr %8
}

; Function Attrs: mustprogress nounwind uwtable
define linkonce_odr hidden noundef ptr @_ZNK13LIR_Assembler11compilationEv(ptr noundef nonnull align 8 dereferenceable(96) %0) #1 comdat align 2 {
  %2 = alloca ptr, align 8
  store ptr %0, ptr %2, align 8
  %3 = load ptr, ptr %2, align 8
  %4 = getelementptr inbounds %class.LIR_Assembler, ptr %3, i32 0, i32 2
  %5 = load ptr, ptr %4, align 8
  ret ptr %5
}

; Function Attrs: mustprogress nounwind uwtable
define linkonce_odr hidden void @_ZN14MacroAssembler21should_not_reach_hereEv(ptr noundef nonnull align 8 dereferenceable(40) %0) #1 comdat align 2 {
  %2 = alloca ptr, align 8
  store ptr %0, ptr %2, align 8
  %3 = load ptr, ptr %2, align 8
  call void @_ZN14MacroAssembler4stopEPKc(ptr noundef nonnull align 8 dereferenceable(40) %3, ptr noundef @.str.28)
  ret void
}

; Function Attrs: mustprogress nounwind uwtable
define linkonce_odr hidden void @_ZN14AddressLiteralC2EOS_(ptr noundef nonnull align 8 dereferenceable(56) %0, ptr noundef nonnull align 8 dereferenceable(56) %1) unnamed_addr #1 comdat align 2 {
  %3 = alloca ptr, align 8
  %4 = alloca ptr, align 8
  store ptr %0, ptr %3, align 8
  store ptr %1, ptr %4, align 8
  %5 = load ptr, ptr %3, align 8
  %6 = getelementptr inbounds %class.AddressLiteral, ptr %5, i32 0, i32 0
  %7 = load ptr, ptr %4, align 8
  %8 = getelementptr inbounds %class.AddressLiteral, ptr %7, i32 0, i32 0
  call void @_ZN16RelocationHolderC2ERKS_(ptr noundef nonnull align 8 dereferenceable(40) %6, ptr noundef nonnull align 8 dereferenceable(40) %8)
  %9 = getelementptr inbounds %class.AddressLiteral, ptr %5, i32 0, i32 1
  %10 = load ptr, ptr %4, align 8
  %11 = getelementptr inbounds %class.AddressLiteral, ptr %10, i32 0, i32 1
  call void @llvm.memcpy.p0.p0.i64(ptr align 8 %9, ptr align 8 %11, i64 16, i1 false)
  ret void
}

; Function Attrs: mustprogress nounwind uwtable
define linkonce_odr hidden void @_ZN14RuntimeAddressC2EPh(ptr noundef nonnull align 8 dereferenceable(56) %0, ptr noundef %1) unnamed_addr #1 comdat align 2 {
  %3 = alloca ptr, align 8
  %4 = alloca ptr, align 8
  store ptr %0, ptr %3, align 8
  store ptr %1, ptr %4, align 8
  %5 = load ptr, ptr %3, align 8
  %6 = load ptr, ptr %4, align 8
  call void @_ZN14AddressLiteralC2EPhN9relocInfo9relocTypeE(ptr noundef nonnull align 8 dereferenceable(56) %5, ptr noundef %6, i32 noundef 6)
  ret void
}

; Function Attrs: mustprogress nounwind uwtable
define linkonce_odr hidden noundef ptr @_ZN8Runtime19entry_forENS_6StubIDE(i32 noundef %0) #1 comdat align 2 {
  %2 = alloca i32, align 4
  store i32 %0, ptr %2, align 4
  %3 = load i32, ptr %2, align 4
  %4 = call noundef ptr @_ZN8Runtime18blob_forENS_6StubIDE(i32 noundef %3)
  %5 = call noundef ptr @_ZNK8CodeBlob10code_beginEv(ptr noundef nonnull align 8 dereferenceable(54) %4)
  ret ptr %5
}

; Function Attrs: mustprogress nounwind uwtable
define linkonce_odr hidden void @_ZN17C1_MacroAssembler19verify_not_null_oopE8Register(ptr noundef nonnull align 8 dereferenceable(44) %0, i32 %1) #1 comdat align 2 {
  %3 = alloca %class.Register, align 4
  %4 = alloca ptr, align 8
  %5 = getelementptr inbounds %class.Register, ptr %3, i32 0, i32 0
  store i32 %1, ptr %5, align 4
  store ptr %0, ptr %4, align 8
  ret void
}

; Function Attrs: mustprogress nounwind uwtable
define linkonce_odr hidden void @_ZN17C1_MacroAssembler20invalidate_registersEbbbbbb(ptr noundef nonnull align 8 dereferenceable(44) %0, i1 noundef zeroext %1, i1 noundef zeroext %2, i1 noundef zeroext %3, i1 noundef zeroext %4, i1 noundef zeroext %5, i1 noundef zeroext %6) #1 comdat align 2 {
  %8 = alloca ptr, align 8
  %9 = alloca i8, align 1
  %10 = alloca i8, align 1
  %11 = alloca i8, align 1
  %12 = alloca i8, align 1
  %13 = alloca i8, align 1
  %14 = alloca i8, align 1
  store ptr %0, ptr %8, align 8
  %15 = zext i1 %1 to i8
  store i8 %15, ptr %9, align 1
  %16 = zext i1 %2 to i8
  store i8 %16, ptr %10, align 1
  %17 = zext i1 %3 to i8
  store i8 %17, ptr %11, align 1
  %18 = zext i1 %4 to i8
  store i8 %18, ptr %12, align 1
  %19 = zext i1 %5 to i8
  store i8 %19, ptr %13, align 1
  %20 = zext i1 %6 to i8
  store i8 %20, ptr %14, align 1
  ret void
}

; Function Attrs: mustprogress nounwind uwtable
define linkonce_odr hidden void @_ZNK13LIR_Assembler7bailoutEPKc(ptr noundef nonnull align 8 dereferenceable(96) %0, ptr noundef %1) #1 comdat align 2 {
  %3 = alloca ptr, align 8
  %4 = alloca ptr, align 8
  store ptr %0, ptr %3, align 8
  store ptr %1, ptr %4, align 8
  %5 = load ptr, ptr %3, align 8
  %6 = call noundef ptr @_ZNK13LIR_Assembler11compilationEv(ptr noundef nonnull align 8 dereferenceable(96) %5)
  %7 = load ptr, ptr %4, align 8
  call void @_ZN11Compilation7bailoutEPKc(ptr noundef nonnull align 8 dereferenceable(704) %6, ptr noundef %7)
  ret void
}

; Function Attrs: mustprogress nounwind uwtable
define linkonce_odr hidden noundef i32 @_ZN13LIR_Assembler22exception_handler_sizeEv() #1 comdat align 2 {
  ret i32 175
}

; Function Attrs: mustprogress nounwind uwtable
define hidden noundef i32 @_ZN13LIR_Assembler22emit_exception_handlerEv(ptr noundef nonnull align 8 dereferenceable(96) %0) #1 align 2 {
  %2 = alloca i32, align 4
  %3 = alloca ptr, align 8
  %4 = alloca ptr, align 8
  %5 = alloca i32, align 4
  %6 = alloca %class.Register, align 4
  %7 = alloca %class.AddressLiteral, align 8
  %8 = alloca %class.RuntimeAddress, align 8
  %9 = alloca %class.Register, align 4
  store ptr %0, ptr %3, align 8
  %10 = load ptr, ptr %3, align 8
  %11 = getelementptr inbounds %class.LIR_Assembler, ptr %10, i32 0, i32 0
  %12 = load ptr, ptr %11, align 8
  %13 = call noundef i32 @_ZN13LIR_Assembler22exception_handler_sizeEv()
  %14 = call noundef ptr @_ZN17AbstractAssembler12start_a_stubEi(ptr noundef nonnull align 8 dereferenceable(24) %12, i32 noundef %13)
  store ptr %14, ptr %4, align 8
  %15 = load ptr, ptr %4, align 8
  %16 = icmp eq ptr %15, null
  br i1 %16, label %17, label %18

17:                                               ; preds = %1
  call void @_ZNK13LIR_Assembler7bailoutEPKc(ptr noundef nonnull align 8 dereferenceable(96) %10, ptr noundef @.str.9)
  store i32 -1, ptr %2, align 4
  br label %46

18:                                               ; preds = %1
  %19 = call noundef i32 @_ZNK13LIR_Assembler11code_offsetEv(ptr noundef nonnull align 8 dereferenceable(96) %10)
  store i32 %19, ptr %5, align 4
  %20 = getelementptr inbounds %class.LIR_Assembler, ptr %10, i32 0, i32 0
  %21 = load ptr, ptr %20, align 8
  call void @_ZN17C1_MacroAssembler20invalidate_registersEbbbbbb(ptr noundef nonnull align 8 dereferenceable(44) %21, i1 noundef zeroext false, i1 noundef zeroext true, i1 noundef zeroext true, i1 noundef zeroext false, i1 noundef zeroext true, i1 noundef zeroext true)
  %22 = getelementptr inbounds %class.LIR_Assembler, ptr %10, i32 0, i32 0
  %23 = load ptr, ptr %22, align 8
  call void @llvm.memcpy.p0.p0.i64(ptr align 4 %6, ptr align 4 @_ZL3rax, i64 4, i1 false)
  %24 = getelementptr inbounds %class.Register, ptr %6, i32 0, i32 0
  %25 = load i32, ptr %24, align 4
  call void @_ZN17C1_MacroAssembler19verify_not_null_oopE8Register(ptr noundef nonnull align 8 dereferenceable(44) %23, i32 %25)
  %26 = getelementptr inbounds %class.LIR_Assembler, ptr %10, i32 0, i32 0
  %27 = load ptr, ptr %26, align 8
  %28 = call noundef ptr @_ZN8Runtime19entry_forENS_6StubIDE(i32 noundef 16)
  call void @_ZN14RuntimeAddressC2EPh(ptr noundef nonnull align 8 dereferenceable(56) %8, ptr noundef %28)
  call void @_ZN14AddressLiteralC2EOS_(ptr noundef nonnull align 8 dereferenceable(56) %7, ptr noundef nonnull align 8 dereferenceable(56) %8)
  call void @llvm.memcpy.p0.p0.i64(ptr align 4 %9, ptr align 4 @_ZL3rax, i64 4, i1 false)
  %29 = getelementptr inbounds %class.Register, ptr %9, i32 0, i32 0
  %30 = load i32, ptr %29, align 4
  call void @_ZN14MacroAssembler4callE14AddressLiteral8Register(ptr noundef nonnull align 8 dereferenceable(40) %27, ptr noundef %7, i32 %30)
  %31 = getelementptr inbounds %class.LIR_Assembler, ptr %10, i32 0, i32 0
  %32 = load ptr, ptr %31, align 8
  call void @_ZN14MacroAssembler21should_not_reach_hereEv(ptr noundef nonnull align 8 dereferenceable(40) %32)
  br label %33

33:                                               ; preds = %18
  %34 = call noundef i32 @_ZNK13LIR_Assembler11code_offsetEv(ptr noundef nonnull align 8 dereferenceable(96) %10)
  %35 = load i32, ptr %5, align 4
  %36 = sub nsw i32 %34, %35
  %37 = call noundef i32 @_ZN13LIR_Assembler22exception_handler_sizeEv()
  %38 = icmp sle i32 %36, %37
  br i1 %38, label %41, label %39

39:                                               ; preds = %33
  %40 = load ptr, ptr @g_assert_poison, align 8
  store i8 88, ptr %40, align 1
  call void (ptr, i32, ptr, ptr, ...) @_Z15report_vm_errorPKciS0_S0_z(ptr noundef @.str.8, i32 noundef 404, ptr noundef @.str.10, ptr noundef @.str.11) #6
  unreachable

41:                                               ; preds = %33
  br label %42

42:                                               ; preds = %41
  %43 = getelementptr inbounds %class.LIR_Assembler, ptr %10, i32 0, i32 0
  %44 = load ptr, ptr %43, align 8
  call void @_ZN17AbstractAssembler10end_a_stubEv(ptr noundef nonnull align 8 dereferenceable(24) %44)
  %45 = load i32, ptr %5, align 4
  store i32 %45, ptr %2, align 4
  br label %46

46:                                               ; preds = %42, %17
  %47 = load i32, ptr %2, align 4
  ret i32 %47
}