; Function Attrs: mustprogress nounwind uwtable
define hidden noundef i32 @_ZN13LIR_Assembler22emit_exception_handlerEv(ptr noundef nonnull align 8 dereferenceable(96) %0) local_unnamed_addr #0 align 2 {
  %2 = alloca %class.AddressLiteral, align 8
  %3 = alloca %class.RuntimeAddress, align 8
  %4 = load ptr, ptr %0, align 8
  %5 = tail call noundef ptr @_ZN17AbstractAssembler12start_a_stubEi(ptr noundef nonnull align 8 dereferenceable(24) %4, i32 noundef 175) #15
  %6 = icmp eq ptr %5, null
  br i1 %6, label %7, label %10

7:                                                ; preds = %1
  %8 = getelementptr inbounds i8, ptr %0, i64 16
  %9 = load ptr, ptr %8, align 8
  tail call void @_ZN11Compilation7bailoutEPKc(ptr noundef nonnull align 8 dereferenceable(704) %9, ptr noundef nonnull @.str.9) #15
  br label %30

10:                                               ; preds = %1
  %11 = tail call noundef i32 @_ZNK13LIR_Assembler11code_offsetEv(ptr noundef nonnull align 8 dereferenceable(96) %0) #15
  %12 = load ptr, ptr %0, align 8
  %13 = tail call noundef ptr @_ZN8Runtime18blob_forENS_6StubIDE(i32 noundef 16) #15
  %14 = getelementptr inbounds i8, ptr %13, i64 36
  %15 = load i32, ptr %14, align 4
  %16 = sext i32 %15 to i64
  %17 = getelementptr inbounds i8, ptr %13, i64 %16
  call void @_ZN14AddressLiteralC2EPhN9relocInfo9relocTypeE(ptr noundef nonnull align 8 dereferenceable(56) %3, ptr noundef %17, i32 noundef 6) #15
  %18 = load ptr, ptr %3, align 8
  %19 = getelementptr inbounds i8, ptr %18, i64 16
  %20 = load ptr, ptr %19, align 8
  call void %20(ptr noundef nonnull align 8 dereferenceable(20) %3, ptr noundef nonnull align 8 dereferenceable(40) %2) #15
  %21 = getelementptr inbounds i8, ptr %2, i64 40
  %22 = getelementptr inbounds i8, ptr %3, i64 40
  call void @llvm.memcpy.p0.p0.i64(ptr noundef nonnull align 8 dereferenceable(16) %21, ptr noundef nonnull align 8 dereferenceable(16) %22, i64 16, i1 false)
  call void @_ZN14MacroAssembler4callE14AddressLiteral8Register(ptr noundef nonnull align 8 dereferenceable(40) %12, ptr noundef nonnull %2, i32 0) #15
  %23 = load ptr, ptr %0, align 8
  call void @_ZN14MacroAssembler4stopEPKc(ptr noundef nonnull align 8 dereferenceable(40) %23, ptr noundef nonnull @.str.28) #15
  %24 = call noundef i32 @_ZNK13LIR_Assembler11code_offsetEv(ptr noundef nonnull align 8 dereferenceable(96) %0) #15
  %25 = sub nsw i32 %24, %11
  %.not = icmp sgt i32 %25, 175
  br i1 %.not, label %26, label %28

26:                                               ; preds = %10
  %27 = load ptr, ptr @g_assert_poison, align 8
  store i8 88, ptr %27, align 1
  call void (ptr, i32, ptr, ptr, ...) @_Z15report_vm_errorPKciS0_S0_z(ptr noundef nonnull @.str.8, i32 noundef 404, ptr noundef nonnull @.str.10, ptr noundef nonnull @.str.11) #16
  unreachable

28:                                               ; preds = %10
  %29 = load ptr, ptr %0, align 8
  call void @_ZN17AbstractAssembler10end_a_stubEv(ptr noundef nonnull align 8 dereferenceable(24) %29) #15
  br label %30

30:                                               ; preds = %28, %7
  %.0 = phi i32 [ -1, %7 ], [ %11, %28 ]
  ret i32 %.0
}